; Function Attrs: mustprogress uwtable
define dso_local void @_ZN10cmMakefile15GeneratorActionclER16cmLocalGeneratorRK19cmListFileBacktrace(ptr noundef nonnull align 8 dereferenceable(72) %0, ptr noundef nonnull align 8 dereferenceable(824) %1, ptr noundef nonnull align 8 dereferenceable(16) %2) local_unnamed_addr #4 align 2 personality ptr @__gxx_personality_v0 {
  %4 = alloca %"class.std::unique_ptr.536", align 8
  %5 = getelementptr inbounds i8, ptr %0, i64 64
  %6 = load ptr, ptr %5, align 8
  %.not = icmp eq ptr %6, null
  br i1 %.not, label %19, label %7

7:                                                ; preds = %3
  %8 = ptrtoint ptr %6 to i64
  store i64 %8, ptr %4, align 8
  store ptr null, ptr %5, align 8
  %9 = getelementptr inbounds i8, ptr %0, i64 48
  %10 = load ptr, ptr %9, align 8
  %.not.i.i = icmp eq ptr %10, null
  br i1 %.not.i.i, label %11, label %12

11:                                               ; preds = %7
  invoke void @_ZSt25__throw_bad_function_callv() #32
          to label %.noexc unwind label %17

.noexc:                                           ; preds = %11
  unreachable

12:                                               ; preds = %7
  %13 = getelementptr inbounds i8, ptr %0, i64 32
  %14 = getelementptr inbounds i8, ptr %0, i64 56
  %15 = load ptr, ptr %14, align 8
  invoke void %15(ptr noundef nonnull align 8 dereferenceable(16) %13, ptr noundef nonnull align 8 dereferenceable(824) %1, ptr noundef nonnull align 8 dereferenceable(16) %2, ptr noundef nonnull align 8 dereferenceable(8) %4)
          to label %_ZNKSt8functionIFvR16cmLocalGeneratorRK19cmListFileBacktraceSt10unique_ptrI15cmCustomCommandSt14default_deleteIS6_EEEEclES1_S4_S9_.exit unwind label %17

_ZNKSt8functionIFvR16cmLocalGeneratorRK19cmListFileBacktraceSt10unique_ptrI15cmCustomCommandSt14default_deleteIS6_EEEEclES1_S4_S9_.exit: ; preds = %12
  %16 = load ptr, ptr %4, align 8
  %.not.i = icmp eq ptr %16, null
  br i1 %.not.i, label %_ZNSt10unique_ptrI15cmCustomCommandSt14default_deleteIS0_EED2Ev.exit, label %_ZNKSt14default_deleteI15cmCustomCommandEclEPS0_.exit.i

_ZNKSt14default_deleteI15cmCustomCommandEclEPS0_.exit.i: ; preds = %_ZNKSt8functionIFvR16cmLocalGeneratorRK19cmListFileBacktraceSt10unique_ptrI15cmCustomCommandSt14default_deleteIS6_EEEEclES1_S4_S9_.exit
  call void @_ZN15cmCustomCommandD2Ev(ptr noundef nonnull align 8 dereferenceable(316) %16) #29
  call void @_ZdlPv(ptr noundef nonnull %16) #30
  br label %_ZNSt10unique_ptrI15cmCustomCommandSt14default_deleteIS0_EED2Ev.exit

17:                                               ; preds = %12, %11
  %18 = landingpad { ptr, i32 }
          cleanup
  call void @_ZNSt10unique_ptrI15cmCustomCommandSt14default_deleteIS0_EED2Ev(ptr noundef nonnull align 8 dereferenceable(8) %4) #29
  resume { ptr, i32 } %18

19:                                               ; preds = %3
  %20 = getelementptr inbounds i8, ptr %0, i64 16
  %21 = load ptr, ptr %20, align 8
  %.not.i.i7 = icmp eq ptr %21, null
  br i1 %.not.i.i7, label %22, label %_ZNKSt8functionIFvR16cmLocalGeneratorRK19cmListFileBacktraceEEclES1_S4_.exit

22:                                               ; preds = %19
  tail call void @_ZSt25__throw_bad_function_callv() #32
  unreachable

_ZNKSt8functionIFvR16cmLocalGeneratorRK19cmListFileBacktraceEEclES1_S4_.exit: ; preds = %19
  %23 = getelementptr inbounds i8, ptr %0, i64 24
  %24 = load ptr, ptr %23, align 8
  tail call void %24(ptr noundef nonnull align 8 dereferenceable(16) %0, ptr noundef nonnull align 8 dereferenceable(824) %1, ptr noundef nonnull align 8 dereferenceable(16) %2)
  br label %_ZNSt10unique_ptrI15cmCustomCommandSt14default_deleteIS0_EED2Ev.exit

_ZNSt10unique_ptrI15cmCustomCommandSt14default_deleteIS0_EED2Ev.exit: ; preds = %_ZNKSt14default_deleteI15cmCustomCommandEclEPS0_.exit.i, %_ZNKSt8functionIFvR16cmLocalGeneratorRK19cmListFileBacktraceSt10unique_ptrI15cmCustomCommandSt14default_deleteIS6_EEEEclES1_S4_S9_.exit, %_ZNKSt8functionIFvR16cmLocalGeneratorRK19cmListFileBacktraceEEclES1_S4_.exit
  ret void
}